target datalayout = "e-m:e-p270:32:32-p271:32:32-p272:64:64-i64:64-i128:128-f80:128-n8:16:32:64-S128"
target triple = "x86_64-pc-linux-gnu"

%"class.std::vector" = type { %"struct.std::_Vector_base" }
%"struct.std::_Vector_base" = type { %"struct.std::_Vector_base<const Variable *, std::allocator<const Variable *>>::_Vector_impl" }
%"struct.std::_Vector_base<const Variable *, std::allocator<const Variable *>>::_Vector_impl" = type { %"struct.std::_Vector_base<const Variable *, std::allocator<const Variable *>>::_Vector_impl_data" }
%"struct.std::_Vector_base<const Variable *, std::allocator<const Variable *>>::_Vector_impl_data" = type { ptr, ptr, ptr }
%"class.std::__cxx11::basic_string" = type { %"struct.std::__cxx11::basic_string<char>::_Alloc_hider", i64, %union.anon }
%"struct.std::__cxx11::basic_string<char>::_Alloc_hider" = type { ptr }
%union.anon = type { i64, [8 x i8] }
%class.FactPointTo = type { %class.Fact.base, ptr, %"class.std::vector" }
%class.Fact.base = type <{ ptr, i32 }>
%class.Variable = type { ptr, %"class.std::vector.8", %"class.std::__cxx11::basic_string", ptr, ptr, i8, i8, i8, i8, i8, i8, ptr, i8, %class.CVQualifiers }
%"class.std::vector.8" = type { %"struct.std::_Vector_base.9" }
%"struct.std::_Vector_base.9" = type { %"struct.std::_Vector_base<Variable *, std::allocator<Variable *>>::_Vector_impl" }
%"struct.std::_Vector_base<Variable *, std::allocator<Variable *>>::_Vector_impl" = type { %"struct.std::_Vector_base<Variable *, std::allocator<Variable *>>::_Vector_impl_data" }
%"struct.std::_Vector_base<Variable *, std::allocator<Variable *>>::_Vector_impl_data" = type { ptr, ptr, ptr }
%class.CVQualifiers = type { ptr, i8, i8, %"class.std::vector.13", %"class.std::vector.13" }
%"class.std::vector.13" = type { %"struct.std::_Bvector_base" }
%"struct.std::_Bvector_base" = type { %"struct.std::_Bvector_base<std::allocator<bool>>::_Bvector_impl" }
%"struct.std::_Bvector_base<std::allocator<bool>>::_Bvector_impl" = type { %"struct.std::_Bvector_base<std::allocator<bool>>::_Bvector_impl_data" }
%"struct.std::_Bvector_base<std::allocator<bool>>::_Bvector_impl_data" = type { %"struct.std::_Bit_iterator", %"struct.std::_Bit_iterator", ptr }
%"struct.std::_Bit_iterator" = type { %"struct.std::_Bit_iterator_base.base", [4 x i8] }
%"struct.std::_Bit_iterator_base.base" = type <{ ptr, i32 }>

@_ZN11FactPointTo8null_ptrE = dso_local global ptr null, align 8
@_ZN11FactPointTo11garbage_ptrE = dso_local global ptr null, align 8
@_ZTI4Fact = external constant ptr
@_ZTI11FactPointTo = dso_local constant { ptr, ptr, ptr } { ptr getelementptr inbounds (ptr, ptr @_ZTVN10__cxxabiv120__si_class_type_infoE, i64 2), ptr @_ZTS11FactPointTo, ptr @_ZTI4Fact }, align 8
@_ZN11FactPointToC1EPK8Variable = dso_local unnamed_addr alias void (ptr, ptr), ptr @_ZN11FactPointToC2EPK8Variable
@_ZN11FactPointToD1Ev = dso_local unnamed_addr alias void (ptr), ptr @_ZN11FactPointToD2Ev

; Function Attrs: mustprogress nounwind uwtable
define linkonce_odr dso_local noundef nonnull align 8 dereferenceable(8) ptr @_ZNKSt6vectorIPK8VariableSaIS2_EEixEm(ptr noundef nonnull align 8 dereferenceable(24) %0, i64 noundef %1) #5 comdat align 2 {
  %3 = alloca ptr, align 8
  %4 = alloca i64, align 8
  store ptr %0, ptr %3, align 8, !tbaa !15
  store i64 %1, ptr %4, align 8, !tbaa !28
  %5 = load ptr, ptr %3, align 8
  %6 = getelementptr inbounds nuw %"struct.std::_Vector_base", ptr %5, i32 0, i32 0
  %7 = getelementptr inbounds nuw %"struct.std::_Vector_base<const Variable *, std::allocator<const Variable *>>::_Vector_impl_data", ptr %6, i32 0, i32 0
  %8 = load ptr, ptr %7, align 8, !tbaa !17
  %9 = load i64, ptr %4, align 8, !tbaa !28
  %10 = getelementptr inbounds nuw ptr, ptr %8, i64 %9
  ret ptr %10
}

; Function Attrs: mustprogress nounwind uwtable
define linkonce_odr dso_local noundef i64 @_ZNKSt6vectorIPK8VariableSaIS2_EE4sizeEv(ptr noundef nonnull align 8 dereferenceable(24) %0) #5 comdat align 2 {
  %2 = alloca ptr, align 8
  store ptr %0, ptr %2, align 8, !tbaa !15
  %3 = load ptr, ptr %2, align 8
  %4 = getelementptr inbounds nuw %"struct.std::_Vector_base", ptr %3, i32 0, i32 0
  %5 = getelementptr inbounds nuw %"struct.std::_Vector_base<const Variable *, std::allocator<const Variable *>>::_Vector_impl_data", ptr %4, i32 0, i32 1
  %6 = load ptr, ptr %5, align 8, !tbaa !20
  %7 = getelementptr inbounds nuw %"struct.std::_Vector_base", ptr %3, i32 0, i32 0
  %8 = getelementptr inbounds nuw %"struct.std::_Vector_base<const Variable *, std::allocator<const Variable *>>::_Vector_impl_data", ptr %7, i32 0, i32 0
  %9 = load ptr, ptr %8, align 8, !tbaa !17
  %10 = ptrtoint ptr %6 to i64
  %11 = ptrtoint ptr %9 to i64
  %12 = sub i64 %10, %11
  %13 = sdiv exact i64 %12, 8
  ret i64 %13
}

; Function Attrs: mustprogress uwtable
define dso_local noundef zeroext i1 @_ZNK11FactPointTo7is_deadEv(ptr noundef nonnull align 8 dereferenceable(48) %0) #6 align 2 {
  %2 = alloca ptr, align 8
  store ptr %0, ptr %2, align 8, !tbaa !26
  %3 = load ptr, ptr %2, align 8
  %4 = getelementptr inbounds nuw %class.FactPointTo, ptr %3, i32 0, i32 2
  %5 = load ptr, ptr @_ZN11FactPointTo11garbage_ptrE, align 8, !tbaa !4
  %6 = call noundef i32 @_Z20find_variable_in_setRKSt6vectorIPK8VariableSaIS2_EES2_(ptr noundef nonnull align 8 dereferenceable(24) %4, ptr noundef %5)
  %7 = icmp ne i32 %6, -1
  ret i1 %7
}

; Function Attrs: mustprogress nounwind uwtable
define dso_local noundef zeroext i1 @_ZNK11FactPointTo7is_nullEv(ptr noundef nonnull align 8 dereferenceable(48) %0) #5 align 2 {
  %2 = alloca i1, align 1
  %3 = alloca ptr, align 8
  %4 = alloca i64, align 8
  %5 = alloca i32, align 4
  store ptr %0, ptr %3, align 8, !tbaa !26
  %6 = load ptr, ptr %3, align 8
  call void @llvm.lifetime.start.p0(i64 8, ptr %4) #3
  store i64 0, ptr %4, align 8, !tbaa !28
  br label %7

7:                                                ; preds = %21, %1
  %8 = load i64, ptr %4, align 8, !tbaa !28
  %9 = getelementptr inbounds nuw %class.FactPointTo, ptr %6, i32 0, i32 2
  %10 = call noundef i64 @_ZNKSt6vectorIPK8VariableSaIS2_EE4sizeEv(ptr noundef nonnull align 8 dereferenceable(24) %9) #3
  %11 = icmp ult i64 %8, %10
  br i1 %11, label %12, label %24

12:                                               ; preds = %7
  %13 = getelementptr inbounds nuw %class.FactPointTo, ptr %6, i32 0, i32 2
  %14 = load i64, ptr %4, align 8, !tbaa !28
  %15 = call noundef nonnull align 8 dereferenceable(8) ptr @_ZNKSt6vectorIPK8VariableSaIS2_EEixEm(ptr noundef nonnull align 8 dereferenceable(24) %13, i64 noundef %14) #3
  %16 = load ptr, ptr %15, align 8, !tbaa !4
  %17 = load ptr, ptr @_ZN11FactPointTo8null_ptrE, align 8, !tbaa !4
  %18 = icmp eq ptr %16, %17
  br i1 %18, label %19, label %20

19:                                               ; preds = %12
  store i1 true, ptr %2, align 1
  store i32 1, ptr %5, align 4
  br label %25

20:                                               ; preds = %12
  br label %21

21:                                               ; preds = %20
  %22 = load i64, ptr %4, align 8, !tbaa !28
  %23 = add i64 %22, 1
  store i64 %23, ptr %4, align 8, !tbaa !28
  br label %7, !llvm.loop !30

24:                                               ; preds = %7
  store i1 false, ptr %2, align 1
  store i32 1, ptr %5, align 4
  br label %25

25:                                               ; preds = %24, %19
  call void @llvm.lifetime.end.p0(i64 8, ptr %4) #3
  %26 = load i1, ptr %2, align 1
  ret i1 %26
}

; Function Attrs: mustprogress uwtable
define dso_local noundef i32 @_ZN11FactPointTo22opportunistic_validateEPK8VariablePK4TypeRKSt6vectorIPK4FactSaIS9_EE(ptr noundef %0, ptr noundef %1, ptr noundef nonnull align 8 dereferenceable(24) %2) #6 align 2 personality ptr @__gxx_personality_v0 {
  %4 = alloca i32, align 4
  %5 = alloca ptr, align 8
  %6 = alloca ptr, align 8
  %7 = alloca ptr, align 8
  %8 = alloca %class.FactPointTo, align 8
  %9 = alloca ptr, align 8
  %10 = alloca ptr, align 8
  %11 = alloca i32, align 4
  %12 = alloca i32, align 4
  %13 = alloca i32, align 4
  store ptr %0, ptr %5, align 8, !tbaa !4
  store ptr %1, ptr %6, align 8, !tbaa !155
  store ptr %2, ptr %7, align 8, !tbaa !70
  %14 = load ptr, ptr %5, align 8, !tbaa !4
  %15 = getelementptr inbounds nuw %class.Variable, ptr %14, i32 0, i32 3
  %16 = load ptr, ptr %15, align 8, !tbaa !120
  %17 = call noundef i32 @_ZNK4Type18get_indirect_levelEv(ptr noundef nonnull align 8 dereferenceable(136) %16)
  %18 = load ptr, ptr %6, align 8, !tbaa !155
  %19 = call noundef i32 @_ZNK4Type18get_indirect_levelEv(ptr noundef nonnull align 8 dereferenceable(136) %18)
  %20 = icmp sle i32 %17, %19
  br i1 %20, label %21, label %22

21:                                               ; preds = %3
  store i32 1, ptr %4, align 4
  br label %77

22:                                               ; preds = %3
  call void @llvm.lifetime.start.p0(i64 48, ptr %8) #3
  %23 = load ptr, ptr %5, align 8, !tbaa !4
  %24 = load ptr, ptr %23, align 8, !tbaa !49
  %25 = getelementptr inbounds ptr, ptr %24, i64 8
  %26 = load ptr, ptr %25, align 8
  %27 = call noundef ptr %26(ptr noundef nonnull align 8 dereferenceable(200) %23)
  call void @_ZN11FactPointToC1EPK8Variable(ptr noundef nonnull align 8 dereferenceable(48) %8, ptr noundef %27)
  call void @llvm.lifetime.start.p0(i64 8, ptr %9) #3
  %28 = load ptr, ptr %7, align 8, !tbaa !70
  %29 = invoke noundef ptr @_Z17find_related_factRKSt6vectorIPK4FactSaIS2_EES2_(ptr noundef nonnull align 8 dereferenceable(24) %28, ptr noundef %8)
          to label %30 unwind label %34

30:                                               ; preds = %22
  %31 = icmp eq ptr %29, null
  br i1 %31, label %38, label %32

32:                                               ; preds = %30
  %33 = call ptr @__dynamic_cast(ptr %29, ptr @_ZTI4Fact, ptr @_ZTI11FactPointTo, i64 0) #3
  br label %39

34:                                               ; preds = %22
  %35 = landingpad { ptr, i32 }
          cleanup
  %36 = extractvalue { ptr, i32 } %35, 0
  store ptr %36, ptr %10, align 8
  %37 = extractvalue { ptr, i32 } %35, 1
  store i32 %37, ptr %11, align 4
  br label %76

38:                                               ; preds = %30
  br label %39

39:                                               ; preds = %38, %32
  %40 = phi ptr [ %33, %32 ], [ null, %38 ]
  store ptr %40, ptr %9, align 8, !tbaa !26
  %41 = load ptr, ptr %9, align 8, !tbaa !26
  %42 = icmp eq ptr %41, null
  br i1 %42, label %43, label %44

43:                                               ; preds = %39
  store i32 0, ptr %4, align 4
  store i32 1, ptr %12, align 4
  br label %75

44:                                               ; preds = %39
  call void @llvm.lifetime.start.p0(i64 4, ptr %13) #3
  store i32 0, ptr %13, align 4, !tbaa !51
  %45 = load ptr, ptr %9, align 8, !tbaa !26
  %46 = call noundef zeroext i1 @_ZNK11FactPointTo7is_nullEv(ptr noundef nonnull align 8 dereferenceable(48) %45)
  br i1 %46, label %47, label %59

47:                                               ; preds = %44
  %48 = invoke noundef i32 @_ZN9CGOptions29null_pointer_dereference_probEv()
          to label %49 unwind label %53

49:                                               ; preds = %47
  %50 = invoke noundef zeroext i1 @_Z12rnd_flipcoinjPK6FilterPKNSt7__cxx1112basic_stringIcSt11char_traitsIcESaIcEEE(i32 noundef %48, ptr noundef null, ptr noundef null)
          to label %51 unwind label %53

51:                                               ; preds = %49
  br i1 %50, label %52, label %57

52:                                               ; preds = %51
  store i32 2, ptr %13, align 4, !tbaa !51
  br label %58

53:                                               ; preds = %66, %64, %60, %49, %47
  %54 = landingpad { ptr, i32 }
          cleanup
  %55 = extractvalue { ptr, i32 } %54, 0
  store ptr %55, ptr %10, align 8
  %56 = extractvalue { ptr, i32 } %54, 1
  store i32 %56, ptr %11, align 4
  call void @llvm.lifetime.end.p0(i64 4, ptr %13) #3
  br label %76

57:                                               ; preds = %51
  store i32 0, ptr %4, align 4
  store i32 1, ptr %12, align 4
  br label %74

58:                                               ; preds = %52
  br label %60

59:                                               ; preds = %44
  store i32 1, ptr %13, align 4, !tbaa !51
  br label %60

60:                                               ; preds = %59, %58
  %61 = load ptr, ptr %9, align 8, !tbaa !26
  %62 = invoke noundef zeroext i1 @_ZNK11FactPointTo7is_deadEv(ptr noundef nonnull align 8 dereferenceable(48) %61)
          to label %63 unwind label %53

63:                                               ; preds = %60
  br i1 %62, label %64, label %72

64:                                               ; preds = %63
  %65 = invoke noundef i32 @_ZN9CGOptions29dead_pointer_dereference_probEv()
          to label %66 unwind label %53

66:                                               ; preds = %64
  %67 = invoke noundef zeroext i1 @_Z12rnd_flipcoinjPK6FilterPKNSt7__cxx1112basic_stringIcSt11char_traitsIcESaIcEEE(i32 noundef %65, ptr noundef null, ptr noundef null)
          to label %68 unwind label %53

68:                                               ; preds = %66
  br i1 %67, label %69, label %70

69:                                               ; preds = %68
  store i32 2, ptr %13, align 4, !tbaa !51
  br label %71

70:                                               ; preds = %68
  store i32 0, ptr %4, align 4
  store i32 1, ptr %12, align 4
  br label %74

71:                                               ; preds = %69
  br label %72

72:                                               ; preds = %71, %63
  %73 = load i32, ptr %13, align 4, !tbaa !51
  store i32 %73, ptr %4, align 4
  store i32 1, ptr %12, align 4
  br label %74

74:                                               ; preds = %72, %70, %57
  call void @llvm.lifetime.end.p0(i64 4, ptr %13) #3
  br label %75

75:                                               ; preds = %74, %43
  call void @llvm.lifetime.end.p0(i64 8, ptr %9) #3
  call void @_ZN11FactPointToD1Ev(ptr noundef nonnull align 8 dereferenceable(48) %8) #3
  call void @llvm.lifetime.end.p0(i64 48, ptr %8) #3
  br label %77

76:                                               ; preds = %53, %34
  call void @llvm.lifetime.end.p0(i64 8, ptr %9) #3
  call void @_ZN11FactPointToD1Ev(ptr noundef nonnull align 8 dereferenceable(48) %8) #3
  call void @llvm.lifetime.end.p0(i64 48, ptr %8) #3
  br label %79

77:                                               ; preds = %75, %21
  %78 = load i32, ptr %4, align 4
  ret i32 %78

79:                                               ; preds = %76
  %80 = load ptr, ptr %10, align 8
  %81 = load i32, ptr %11, align 4
  %82 = insertvalue { ptr, i32 } poison, ptr %80, 0
  %83 = insertvalue { ptr, i32 } %82, i32 %81, 1
  resume { ptr, i32 } %83
}