; Function Attrs: mustprogress uwtable
define dso_local noundef range(i32 0, 3) i32 @_ZN11FactPointTo22opportunistic_validateEPK8VariablePK4TypeRKSt6vectorIPK4FactSaIS9_EE(ptr noundef %0, ptr noundef %1, ptr noundef nonnull align 8 dereferenceable(24) %2) local_unnamed_addr #6 align 2 personality ptr @__gxx_personality_v0 {
  %4 = alloca %class.FactPointTo, align 8
  %5 = getelementptr inbounds nuw i8, ptr %0, i64 64
  %6 = load ptr, ptr %5, align 8, !tbaa !97
  %7 = tail call noundef i32 @_ZNK4Type18get_indirect_levelEv(ptr noundef nonnull align 8 dereferenceable(136) %6)
  %8 = tail call noundef i32 @_ZNK4Type18get_indirect_levelEv(ptr noundef nonnull align 8 dereferenceable(136) %1)
  %.not = icmp sgt i32 %7, %8
  br i1 %.not, label %9, label %67

9:                                                ; preds = %3
  call void @llvm.lifetime.start.p0(i64 48, ptr nonnull %4) #22
  %10 = load ptr, ptr %0, align 8, !tbaa !35
  %11 = getelementptr inbounds nuw i8, ptr %10, i64 64
  %12 = load ptr, ptr %11, align 8
  %13 = tail call noundef ptr %12(ptr noundef nonnull align 8 dereferenceable(200) %0)
  call void @_ZN4FactC2E13eFactCategory(ptr noundef nonnull align 8 dereferenceable(48) %4, i32 noundef 1)
  store ptr getelementptr inbounds nuw inrange(-16, 152) (i8, ptr @_ZTV11FactPointTo, i64 16), ptr %4, align 8, !tbaa !35
  %14 = getelementptr inbounds nuw i8, ptr %4, i64 16
  store ptr %13, ptr %14, align 8, !tbaa !22
  %15 = getelementptr inbounds nuw i8, ptr %4, i64 24
  call void @llvm.memset.p0.i64(ptr noundef nonnull align 8 dereferenceable(24) %15, i8 0, i64 24, i1 false)
  %16 = invoke noalias noundef nonnull dereferenceable(8) ptr @_Znwm(i64 noundef 8) #24
          to label %_ZN11FactPointToC2EPK8Variable.exit unwind label %_ZNSt6vectorIPK8VariableSaIS2_EED2Ev.exit.i

common.resume:                                    ; preds = %66, %_ZNSt6vectorIPK8VariableSaIS2_EED2Ev.exit.i
  %common.resume.op = phi { ptr, i32 } [ %17, %_ZNSt6vectorIPK8VariableSaIS2_EED2Ev.exit.i ], [ %.pn, %66 ]
  resume { ptr, i32 } %common.resume.op

_ZNSt6vectorIPK8VariableSaIS2_EED2Ev.exit.i:      ; preds = %9
  %17 = landingpad { ptr, i32 }
          cleanup
  call void @_ZN4FactD2Ev(ptr noundef nonnull align 8 dereferenceable(48) %4) #22
  br label %common.resume

_ZN11FactPointToC2EPK8Variable.exit:              ; preds = %9
  %18 = getelementptr inbounds nuw i8, ptr %4, i64 40
  %19 = getelementptr inbounds nuw i8, ptr %4, i64 32
  %20 = load ptr, ptr @_ZN11FactPointTo11garbage_ptrE, align 8, !tbaa !19
  store ptr %20, ptr %16, align 8, !tbaa !19
  %21 = getelementptr inbounds nuw i8, ptr %16, i64 8
  store ptr %16, ptr %15, align 8, !tbaa !4
  store ptr %21, ptr %19, align 8, !tbaa !18
  store ptr %21, ptr %18, align 8, !tbaa !10
  %22 = invoke noundef ptr @_Z17find_related_factRKSt6vectorIPK4FactSaIS2_EES2_(ptr noundef nonnull align 8 dereferenceable(24) %2, ptr noundef nonnull %4)
          to label %23 unwind label %25

23:                                               ; preds = %_ZN11FactPointToC2EPK8Variable.exit
  %24 = icmp eq ptr %22, null
  br i1 %24, label %.thread, label %27

25:                                               ; preds = %_ZN11FactPointToC2EPK8Variable.exit
  %26 = landingpad { ptr, i32 }
          cleanup
  br label %66

27:                                               ; preds = %23
  %28 = call ptr @__dynamic_cast(ptr nonnull %22, ptr nonnull @_ZTI4Fact, ptr nonnull @_ZTI11FactPointTo, i64 0) #22
  %29 = icmp eq ptr %28, null
  br i1 %29, label %.thread, label %30

30:                                               ; preds = %27
  %31 = getelementptr inbounds nuw i8, ptr %28, i64 24
  %32 = getelementptr inbounds nuw i8, ptr %28, i64 32
  %33 = load ptr, ptr %32, align 8, !tbaa !18
  %34 = load ptr, ptr %31, align 8, !tbaa !4
  %.not.i = icmp eq ptr %33, %34
  br i1 %.not.i, label %_ZNK11FactPointTo7is_nullEv.exit.thread, label %.lr.ph.i

.lr.ph.i:                                         ; preds = %30
  %35 = ptrtoint ptr %33 to i64
  %36 = ptrtoint ptr %34 to i64
  %37 = sub i64 %35, %36
  %38 = ashr exact i64 %37, 3
  %39 = load ptr, ptr @_ZN11FactPointTo8null_ptrE, align 8, !tbaa !19
  %umax.i = call i64 @llvm.umax.i64(i64 %38, i64 1)
  br label %42

40:                                               ; preds = %42
  %41 = add nuw i64 %.05.i, 1
  %exitcond.not.i = icmp eq i64 %41, %umax.i
  br i1 %exitcond.not.i, label %_ZNK11FactPointTo7is_nullEv.exit.thread, label %42, !llvm.loop !21

42:                                               ; preds = %40, %.lr.ph.i
  %.05.i = phi i64 [ 0, %.lr.ph.i ], [ %41, %40 ]
  %43 = getelementptr inbounds nuw ptr, ptr %34, i64 %.05.i
  %44 = load ptr, ptr %43, align 8, !tbaa !19
  %45 = icmp eq ptr %44, %39
  br i1 %45, label %_ZNK11FactPointTo7is_nullEv.exit, label %40

_ZNK11FactPointTo7is_nullEv.exit:                 ; preds = %42
  %46 = invoke noundef i32 @_ZN9CGOptions29null_pointer_dereference_probEv()
          to label %47 unwind label %50

47:                                               ; preds = %_ZNK11FactPointTo7is_nullEv.exit
  %48 = invoke noundef zeroext i1 @_Z12rnd_flipcoinjPK6FilterPKNSt7__cxx1112basic_stringIcSt11char_traitsIcESaIcEEE(i32 noundef %46, ptr noundef null, ptr noundef null)
          to label %49 unwind label %50

49:                                               ; preds = %47
  br i1 %48, label %_ZNK11FactPointTo7is_nullEv.exit.thread, label %.thread

50:                                               ; preds = %_ZNK11FactPointTo7is_nullEv.exit.thread, %57, %55, %47, %_ZNK11FactPointTo7is_nullEv.exit
  %51 = landingpad { ptr, i32 }
          cleanup
  br label %66

_ZNK11FactPointTo7is_nullEv.exit.thread:          ; preds = %40, %30, %49
  %.0 = phi i32 [ 2, %49 ], [ 1, %30 ], [ 1, %40 ]
  %52 = load ptr, ptr @_ZN11FactPointTo11garbage_ptrE, align 8, !tbaa !19
  %53 = invoke noundef i32 @_Z20find_variable_in_setRKSt6vectorIPK8VariableSaIS2_EES2_(ptr noundef nonnull align 8 dereferenceable(24) %31, ptr noundef %52)
          to label %54 unwind label %50

54:                                               ; preds = %_ZNK11FactPointTo7is_nullEv.exit.thread
  %.not19 = icmp eq i32 %53, -1
  br i1 %.not19, label %.thread, label %55

55:                                               ; preds = %54
  %56 = invoke noundef i32 @_ZN9CGOptions29dead_pointer_dereference_probEv()
          to label %57 unwind label %50

57:                                               ; preds = %55
  %58 = invoke noundef zeroext i1 @_Z12rnd_flipcoinjPK6FilterPKNSt7__cxx1112basic_stringIcSt11char_traitsIcESaIcEEE(i32 noundef %56, ptr noundef null, ptr noundef null)
          to label %59 unwind label %50

59:                                               ; preds = %57
  %spec.select = select i1 %58, i32 2, i32 0
  br label %.thread

.thread:                                          ; preds = %23, %59, %49, %54, %27
  %.113 = phi i32 [ 0, %27 ], [ 0, %49 ], [ %.0, %54 ], [ %spec.select, %59 ], [ 0, %23 ]
  store ptr getelementptr inbounds nuw inrange(-16, 152) (i8, ptr @_ZTV11FactPointTo, i64 16), ptr %4, align 8, !tbaa !35
  %60 = load ptr, ptr %15, align 8, !tbaa !4
  %.not.i.i.i.i = icmp eq ptr %60, null
  br i1 %.not.i.i.i.i, label %_ZN11FactPointToD2Ev.exit, label %61

61:                                               ; preds = %.thread
  %62 = load ptr, ptr %18, align 8, !tbaa !10
  %63 = ptrtoint ptr %62 to i64
  %64 = ptrtoint ptr %60 to i64
  %65 = sub i64 %63, %64
  call void @_ZdlPvm(ptr noundef nonnull %60, i64 noundef %65) #21
  br label %_ZN11FactPointToD2Ev.exit

_ZN11FactPointToD2Ev.exit:                        ; preds = %.thread, %61
  call void @_ZN4FactD2Ev(ptr noundef nonnull align 8 dereferenceable(48) %4) #22
  call void @llvm.lifetime.end.p0(i64 48, ptr nonnull %4) #22
  br label %67

66:                                               ; preds = %50, %25
  %.pn = phi { ptr, i32 } [ %51, %50 ], [ %26, %25 ]
  call void @_ZN11FactPointToD2Ev(ptr noundef nonnull align 8 dereferenceable(48) %4) #22
  call void @llvm.lifetime.end.p0(i64 48, ptr nonnull %4) #22
  br label %common.resume

67:                                               ; preds = %3, %_ZN11FactPointToD2Ev.exit
  %.012 = phi i32 [ %.113, %_ZN11FactPointToD2Ev.exit ], [ 1, %3 ]
  ret i32 %.012
}